target datalayout = "e-m:e-p270:32:32-p271:32:32-p272:64:64-i64:64-i128:128-f80:128-n8:16:32:64-S128"
target triple = "x86_64-pc-linux-gnu"

%struct.pdf_struct = type { ptr, i32, i32, i32, i32, i32, ptr, i64, ptr, i64, i64, i64, ptr, ptr, i32, i32, ptr, i32, ptr, i32, %struct.pdf_stats, ptr, i32, i32 }
%struct.pdf_stats = type { i32, i32, i32, i32, i32, i32, i32, i32, i32, i32, i32, i32, i32, i32, i32, i32, i32, i32, i32, i32, i32, i32, i32, i32, i32, ptr, ptr, ptr, ptr, ptr, ptr, ptr, ptr }
%struct.pdf_obj = type { i32, i64, i32, i32, i32, i32, [64 x i32], ptr, i64, ptr, ptr, i8 }
%struct.cli_ctx_tag = type { ptr, ptr, ptr, ptr, ptr, ptr, ptr, i64, ptr, i32, i32, ptr, i32, i32, ptr, [16 x i8], ptr, ptr, ptr, ptr, ptr, ptr, %struct.timeval, i8, i8 }
%struct.timeval = type { i64, i64 }
%struct.cl_scan_options = type { i32, i32, i32, i32, i32 }

@.str.94 = private unnamed_addr constant [9 x i8] c"PDFStats\00", align 1
@.str.276 = private unnamed_addr constant [13 x i8] c"JBIG2Objects\00", align 1

; Function Attrs: nounwind uwtable
define internal void @JBIG2Decode_cb(ptr noundef %0, ptr noundef %1, ptr noundef %2) #0 {
  %4 = alloca ptr, align 8
  %5 = alloca ptr, align 8
  %6 = alloca ptr, align 8
  %7 = alloca ptr, align 8
  %8 = alloca ptr, align 8
  %9 = alloca ptr, align 8
  store ptr %0, ptr %4, align 8
  store ptr %1, ptr %5, align 8
  store ptr %2, ptr %6, align 8
  store ptr null, ptr %7, align 8
  %10 = load ptr, ptr %4, align 8
  %11 = icmp eq ptr null, %10
  br i1 %11, label %12, label %13

12:                                               ; preds = %3
  br label %61

13:                                               ; preds = %3
  %14 = load ptr, ptr %4, align 8
  %15 = getelementptr inbounds %struct.pdf_struct, ptr %14, i32 0, i32 12
  %16 = load ptr, ptr %15, align 8
  store ptr %16, ptr %7, align 8
  %17 = load ptr, ptr %7, align 8
  %18 = getelementptr inbounds %struct.cli_ctx_tag, ptr %17, i32 0, i32 8
  %19 = load ptr, ptr %18, align 8
  %20 = getelementptr inbounds %struct.cl_scan_options, ptr %19, i32 0, i32 0
  %21 = load i32, ptr %20, align 4
  %22 = and i32 %21, 2
  %23 = icmp ne i32 %22, 0
  br i1 %23, label %25, label %24

24:                                               ; preds = %13
  br label %61

25:                                               ; preds = %13
  %26 = load ptr, ptr %4, align 8
  %27 = getelementptr inbounds %struct.pdf_struct, ptr %26, i32 0, i32 12
  %28 = load ptr, ptr %27, align 8
  %29 = getelementptr inbounds %struct.cli_ctx_tag, ptr %28, i32 0, i32 21
  %30 = load ptr, ptr %29, align 8
  %31 = icmp ne ptr %30, null
  br i1 %31, label %33, label %32

32:                                               ; preds = %25
  br label %61

33:                                               ; preds = %25
  %34 = load ptr, ptr %4, align 8
  %35 = getelementptr inbounds %struct.pdf_struct, ptr %34, i32 0, i32 12
  %36 = load ptr, ptr %35, align 8
  %37 = getelementptr inbounds %struct.cli_ctx_tag, ptr %36, i32 0, i32 21
  %38 = load ptr, ptr %37, align 8
  %39 = call ptr @cli_jsonobj(ptr noundef %38, ptr noundef @.str.94)
  store ptr %39, ptr %8, align 8
  %40 = load ptr, ptr %8, align 8
  %41 = icmp ne ptr %40, null
  br i1 %41, label %43, label %42

42:                                               ; preds = %33
  br label %61

43:                                               ; preds = %33
  %44 = load ptr, ptr %8, align 8
  %45 = call ptr @cli_jsonarray(ptr noundef %44, ptr noundef @.str.276)
  store ptr %45, ptr %9, align 8
  %46 = load ptr, ptr %9, align 8
  %47 = icmp ne ptr %46, null
  br i1 %47, label %49, label %48

48:                                               ; preds = %43
  br label %61

49:                                               ; preds = %43
  %50 = load ptr, ptr %9, align 8
  %51 = load ptr, ptr %5, align 8
  %52 = getelementptr inbounds %struct.pdf_obj, ptr %51, i32 0, i32 2
  %53 = load i32, ptr %52, align 8
  %54 = lshr i32 %53, 8
  %55 = call i32 @cli_jsonint_array(ptr noundef %50, i32 noundef %54)
  %56 = load ptr, ptr %4, align 8
  %57 = getelementptr inbounds %struct.pdf_struct, ptr %56, i32 0, i32 20
  %58 = getelementptr inbounds %struct.pdf_stats, ptr %57, i32 0, i32 13
  %59 = load i32, ptr %58, align 4
  %60 = add nsw i32 %59, 1
  store i32 %60, ptr %58, align 4
  br label %61

61:                                               ; preds = %49, %48, %42, %32, %24, %12
  ret void
}