; Function Attrs: nounwind uwtable
define internal void @JBIG2Decode_cb(ptr noundef %0, ptr nocapture noundef readonly %1, ptr nocapture readnone %2) #0 {
  %4 = icmp eq ptr %0, null
  br i1 %4, label %27, label %5

5:                                                ; preds = %3
  %6 = getelementptr inbounds i8, ptr %0, i64 80
  %7 = load ptr, ptr %6, align 8
  %8 = getelementptr inbounds i8, ptr %7, i64 64
  %9 = load ptr, ptr %8, align 8
  %10 = load i32, ptr %9, align 4
  %11 = and i32 %10, 2
  %.not = icmp eq i32 %11, 0
  br i1 %.not, label %27, label %12

12:                                               ; preds = %5
  %13 = getelementptr inbounds i8, ptr %7, i64 160
  %14 = load ptr, ptr %13, align 8
  %.not14 = icmp eq ptr %14, null
  br i1 %.not14, label %27, label %15

15:                                               ; preds = %12
  %16 = tail call ptr @cli_jsonobj(ptr noundef nonnull %14, ptr noundef nonnull @.str.94) #22
  %.not15 = icmp eq ptr %16, null
  br i1 %.not15, label %27, label %17

17:                                               ; preds = %15
  %18 = tail call ptr @cli_jsonarray(ptr noundef nonnull %16, ptr noundef nonnull @.str.276) #22
  %.not16 = icmp eq ptr %18, null
  br i1 %.not16, label %27, label %19

19:                                               ; preds = %17
  %20 = getelementptr inbounds i8, ptr %1, i64 16
  %21 = load i32, ptr %20, align 8
  %22 = lshr i32 %21, 8
  %23 = tail call i32 @cli_jsonint_array(ptr noundef nonnull %18, i32 noundef %22) #22
  %24 = getelementptr inbounds i8, ptr %0, i64 188
  %25 = load i32, ptr %24, align 4
  %26 = add nsw i32 %25, 1
  store i32 %26, ptr %24, align 4
  br label %27

27:                                               ; preds = %17, %15, %12, %5, %3, %19
  ret void
}